target datalayout = "e-m:e-p270:32:32-p271:32:32-p272:64:64-i64:64-i128:128-f80:128-n8:16:32:64-S128"
target triple = "x86_64-pc-linux-gnu"

%struct.PQArgBlock = type { i32, i32, %union.anon }
%union.anon = type { ptr }
%struct.pg_conn = type { ptr, ptr, ptr, ptr, ptr, ptr, ptr, ptr, ptr, ptr, ptr, ptr, ptr, ptr, ptr, ptr, ptr, ptr, ptr, ptr, ptr, ptr, ptr, ptr, ptr, ptr, ptr, ptr, ptr, ptr, ptr, ptr, ptr, ptr, ptr, ptr, ptr, ptr, ptr, ptr, ptr, ptr, ptr, i8, ptr, i32, %struct.PGNoticeHooks, ptr, i32, i32, i32, i32, i32, [6 x i8], i8, i8, i32, i8, i8, i32, i8, i32, ptr, ptr, i32, i32, ptr, ptr, ptr, ptr, ptr, i32, %struct.SockAddr, %struct.SockAddr, i32, i32, i8, i8, i8, i8, i8, i8, ptr, i8, i32, [1 x ptr], i8, i8, ptr, ptr, i32, i32, i32, i8, i8, i32, i32, ptr, i8, i64, ptr, i64, ptr, i32, i32, ptr, i32, i8, i32, i32, i32, i32, ptr, %struct.pg_prng_state, ptr, i32, i32, i32, i32, ptr, i32, i32, i32, i32, ptr, i32, ptr, i8, ptr, ptr, ptr, i32, i8, i8, i8, i8, i8, i8, i8, i8, %struct.PQExpBufferData, i32, %struct.PQExpBufferData }
%struct.PGNoticeHooks = type { ptr, ptr, ptr, ptr }
%struct.SockAddr = type { %struct.sockaddr_storage, i32 }
%struct.sockaddr_storage = type { i16, [118 x i8], i64 }
%struct.pg_prng_state = type { i64, i64 }
%struct.PQExpBufferData = type { ptr, i64, i64 }
%struct.pgLobjfuncs = type { i32, i32, i32, i32, i32, i32, i32, i32, i32, i32, i32, i32, i32 }

@.str = private unnamed_addr constant [36 x i8] c"cannot determine OID of function %s\00", align 1
@.str.7 = private unnamed_addr constant [10 x i8] c"lo_create\00", align 1

; Function Attrs: nounwind uwtable
define i32 @lo_create(ptr noundef %0, i32 noundef %1) #0 {
  %3 = alloca i32, align 4
  %4 = alloca ptr, align 8
  %5 = alloca i32, align 4
  %6 = alloca [1 x %struct.PQArgBlock], align 16
  %7 = alloca ptr, align 8
  %8 = alloca i32, align 4
  %9 = alloca i32, align 4
  %10 = alloca i32, align 4
  store ptr %0, ptr %4, align 8
  store i32 %1, ptr %5, align 4
  call void @llvm.lifetime.start.p0(i64 16, ptr %6) #10
  call void @llvm.lifetime.start.p0(i64 8, ptr %7) #10
  call void @llvm.lifetime.start.p0(i64 4, ptr %8) #10
  call void @llvm.lifetime.start.p0(i64 4, ptr %9) #10
  %11 = load ptr, ptr %4, align 8
  %12 = call i32 @lo_initialize(ptr noundef %11)
  %13 = icmp slt i32 %12, 0
  br i1 %13, label %14, label %15

14:                                               ; preds = %2
  store i32 0, ptr %3, align 4
  store i32 1, ptr %10, align 4
  br label %48

15:                                               ; preds = %2
  %16 = load ptr, ptr %4, align 8
  %17 = getelementptr inbounds nuw %struct.pg_conn, ptr %16, i32 0, i32 112
  %18 = load ptr, ptr %17, align 8
  %19 = getelementptr inbounds nuw %struct.pgLobjfuncs, ptr %18, i32 0, i32 3
  %20 = load i32, ptr %19, align 4
  %21 = icmp eq i32 %20, 0
  br i1 %21, label %22, label %24

22:                                               ; preds = %15
  %23 = load ptr, ptr %4, align 8
  call void (ptr, ptr, ...) @libpq_append_conn_error(ptr noundef %23, ptr noundef @.str, ptr noundef @.str.7)
  store i32 0, ptr %3, align 4
  store i32 1, ptr %10, align 4
  br label %48

24:                                               ; preds = %15
  %25 = getelementptr inbounds [1 x %struct.PQArgBlock], ptr %6, i64 0, i64 0
  %26 = getelementptr inbounds nuw %struct.PQArgBlock, ptr %25, i32 0, i32 1
  store i32 1, ptr %26, align 4
  %27 = getelementptr inbounds [1 x %struct.PQArgBlock], ptr %6, i64 0, i64 0
  %28 = getelementptr inbounds nuw %struct.PQArgBlock, ptr %27, i32 0, i32 0
  store i32 4, ptr %28, align 16
  %29 = load i32, ptr %5, align 4
  %30 = getelementptr inbounds [1 x %struct.PQArgBlock], ptr %6, i64 0, i64 0
  %31 = getelementptr inbounds nuw %struct.PQArgBlock, ptr %30, i32 0, i32 2
  store i32 %29, ptr %31, align 8
  %32 = load ptr, ptr %4, align 8
  %33 = load ptr, ptr %4, align 8
  %34 = getelementptr inbounds nuw %struct.pg_conn, ptr %33, i32 0, i32 112
  %35 = load ptr, ptr %34, align 8
  %36 = getelementptr inbounds nuw %struct.pgLobjfuncs, ptr %35, i32 0, i32 3
  %37 = load i32, ptr %36, align 4
  %38 = getelementptr inbounds [1 x %struct.PQArgBlock], ptr %6, i64 0, i64 0
  %39 = call ptr @PQfn(ptr noundef %32, i32 noundef %37, ptr noundef %8, ptr noundef %9, i32 noundef 1, ptr noundef %38, i32 noundef 1)
  store ptr %39, ptr %7, align 8
  %40 = load ptr, ptr %7, align 8
  %41 = call i32 @PQresultStatus(ptr noundef %40)
  %42 = icmp eq i32 %41, 1
  br i1 %42, label %43, label %46

43:                                               ; preds = %24
  %44 = load ptr, ptr %7, align 8
  call void @PQclear(ptr noundef %44)
  %45 = load i32, ptr %8, align 4
  store i32 %45, ptr %3, align 4
  store i32 1, ptr %10, align 4
  br label %48

46:                                               ; preds = %24
  %47 = load ptr, ptr %7, align 8
  call void @PQclear(ptr noundef %47)
  store i32 0, ptr %3, align 4
  store i32 1, ptr %10, align 4
  br label %48

48:                                               ; preds = %46, %43, %22, %14
  call void @llvm.lifetime.end.p0(i64 4, ptr %9) #10
  call void @llvm.lifetime.end.p0(i64 4, ptr %8) #10
  call void @llvm.lifetime.end.p0(i64 8, ptr %7) #10
  call void @llvm.lifetime.end.p0(i64 16, ptr %6) #10
  %49 = load i32, ptr %3, align 4
  ret i32 %49
}