; Function Attrs: nounwind uwtable
define i32 @lo_create(ptr noundef %0, i32 noundef %1) local_unnamed_addr #0 {
  %3 = alloca [1 x %struct.PQArgBlock], align 16
  %4 = alloca i32, align 4
  %5 = alloca i32, align 4
  call void @llvm.lifetime.start.p0(i64 16, ptr nonnull %3) #10
  call void @llvm.lifetime.start.p0(i64 4, ptr nonnull %4) #10
  call void @llvm.lifetime.start.p0(i64 4, ptr nonnull %5) #10
  %6 = tail call fastcc i32 @lo_initialize(ptr noundef %0)
  %7 = icmp slt i32 %6, 0
  br i1 %7, label %22, label %8

8:                                                ; preds = %2
  %9 = getelementptr inbounds nuw i8, ptr %0, i64 976
  %10 = load ptr, ptr %9, align 8
  %11 = getelementptr inbounds nuw i8, ptr %10, i64 12
  %12 = load i32, ptr %11, align 4
  %13 = icmp eq i32 %12, 0
  br i1 %13, label %14, label %15

14:                                               ; preds = %8
  tail call void (ptr, ptr, ...) @libpq_append_conn_error(ptr noundef nonnull %0, ptr noundef nonnull @.str, ptr noundef nonnull @.str.7) #10
  br label %22

15:                                               ; preds = %8
  %16 = getelementptr inbounds nuw i8, ptr %3, i64 4
  store i32 1, ptr %16, align 4
  store i32 4, ptr %3, align 16
  %17 = getelementptr inbounds nuw i8, ptr %3, i64 8
  store i32 %1, ptr %17, align 8
  %18 = call ptr @PQfn(ptr noundef nonnull %0, i32 noundef %12, ptr noundef nonnull %4, ptr noundef nonnull %5, i32 noundef 1, ptr noundef nonnull %3, i32 noundef 1) #10
  %19 = call i32 @PQresultStatus(ptr noundef %18) #10
  %20 = icmp eq i32 %19, 1
  call void @PQclear(ptr noundef %18) #10
  %21 = load i32, ptr %4, align 4
  %spec.select = select i1 %20, i32 %21, i32 0
  br label %22

22:                                               ; preds = %15, %2, %14
  %.0 = phi i32 [ 0, %14 ], [ 0, %2 ], [ %spec.select, %15 ]
  call void @llvm.lifetime.end.p0(i64 4, ptr nonnull %5) #10
  call void @llvm.lifetime.end.p0(i64 4, ptr nonnull %4) #10
  call void @llvm.lifetime.end.p0(i64 16, ptr nonnull %3) #10
  ret i32 %.0
}